target datalayout = "e-m:e-p270:32:32-p271:32:32-p272:64:64-i64:64-i128:128-f80:128-n8:16:32:64-S128"
target triple = "x86_64-pc-linux-gnu"

%struct.pmix_output_desc_t = type { i8, i8, i32, i8, i32, ptr, ptr, i32, ptr, i32, i8, i8, i8, i8, ptr, i32, i32 }
%struct.hwloc_obj = type { i32, ptr, i32, ptr, i64, ptr, i32, i32, ptr, ptr, ptr, i32, ptr, ptr, i32, ptr, ptr, ptr, i32, i32, ptr, i32, ptr, i32, ptr, ptr, ptr, ptr, ptr, ptr, i32, ptr, i64 }
%struct.hwloc_info_s = type { ptr, ptr }
%struct.hwloc_osdev_attr_s = type { i32 }

@prte_hwloc_base_output = external global i32, align 4
@pmix_output_info = external global [0 x %struct.pmix_output_desc_t], align 8
@.str.26 = private unnamed_addr constant [49 x i8] c"hwloc:base:find_coprocessors: NONE FOUND IN TOPO\00", align 1
@.str.27 = private unnamed_addr constant [16 x i8] c"MICSerialNumber\00", align 1
@.str.28 = private unnamed_addr constant [51 x i8] c"hwloc:base:find_coprocessors: coprocessor %s found\00", align 1
@.str.29 = private unnamed_addr constant [54 x i8] c"hwloc:base:find_coprocessors: hosting coprocessors %s\00", align 1
@.str.30 = private unnamed_addr constant [5 x i8] c"NONE\00", align 1

; Function Attrs: nounwind uwtable
define ptr @prte_hwloc_base_find_coprocessors(ptr noundef %0) #0 {
  %2 = alloca ptr, align 8
  %3 = alloca ptr, align 8
  %4 = alloca ptr, align 8
  %5 = alloca i32, align 4
  %6 = alloca ptr, align 8
  %7 = alloca ptr, align 8
  %8 = alloca i32, align 4
  %9 = alloca i32, align 4
  store ptr %0, ptr %3, align 8, !tbaa !3
  call void @llvm.lifetime.start.p0(i64 8, ptr %4) #10
  call void @llvm.lifetime.start.p0(i64 4, ptr %5) #10
  call void @llvm.lifetime.start.p0(i64 8, ptr %6) #10
  store ptr null, ptr %6, align 8, !tbaa !28
  call void @llvm.lifetime.start.p0(i64 8, ptr %7) #10
  store ptr null, ptr %7, align 8, !tbaa !26
  call void @llvm.lifetime.start.p0(i64 4, ptr %8) #10
  %10 = load ptr, ptr %3, align 8, !tbaa !3
  %11 = call i32 @hwloc_get_type_depth(ptr noundef %10, i32 noundef 16)
  store i32 %11, ptr %8, align 4, !tbaa !19
  %12 = icmp eq i32 -1, %11
  br i1 %12, label %13, label %29

13:                                               ; preds = %1
  %14 = load i32, ptr @prte_hwloc_base_output, align 4, !tbaa !19
  %15 = icmp sge i32 %14, 0
  br i1 %15, label %16, label %28

16:                                               ; preds = %13
  %17 = load i32, ptr @prte_hwloc_base_output, align 4, !tbaa !19
  %18 = icmp slt i32 %17, 64
  br i1 %18, label %19, label %28

19:                                               ; preds = %16
  %20 = load i32, ptr @prte_hwloc_base_output, align 4, !tbaa !19
  %21 = sext i32 %20 to i64
  %22 = getelementptr inbounds [0 x %struct.pmix_output_desc_t], ptr @pmix_output_info, i64 0, i64 %21
  %23 = getelementptr inbounds nuw %struct.pmix_output_desc_t, ptr %22, i32 0, i32 2
  %24 = load i32, ptr %23, align 4, !tbaa !24
  %25 = icmp sge i32 %24, 5
  br i1 %25, label %26, label %28

26:                                               ; preds = %19
  %27 = load i32, ptr @prte_hwloc_base_output, align 4, !tbaa !19
  call void (i32, ptr, ...) @pmix_output(i32 noundef %27, ptr noundef @.str.26)
  br label %28

28:                                               ; preds = %26, %19, %16, %13
  store ptr null, ptr %2, align 8
  store i32 1, ptr %9, align 4
  br label %134

29:                                               ; preds = %1
  %30 = load ptr, ptr %3, align 8, !tbaa !3
  %31 = load i32, ptr %8, align 4, !tbaa !19
  %32 = call ptr @hwloc_get_obj_by_depth(ptr noundef %30, i32 noundef %31, i32 noundef 0) #11
  store ptr %32, ptr %4, align 8, !tbaa !8
  br label %33

33:                                               ; preds = %99, %29
  %34 = load ptr, ptr %4, align 8, !tbaa !8
  %35 = icmp ne ptr null, %34
  br i1 %35, label %36, label %103

36:                                               ; preds = %33
  %37 = load ptr, ptr %4, align 8, !tbaa !8
  %38 = getelementptr inbounds nuw %struct.hwloc_obj, ptr %37, i32 0, i32 5
  %39 = load ptr, ptr %38, align 8, !tbaa !88
  %40 = getelementptr inbounds nuw %struct.hwloc_osdev_attr_s, ptr %39, i32 0, i32 0
  %41 = load i32, ptr %40, align 8, !tbaa !89
  %42 = icmp eq i32 5, %41
  br i1 %42, label %43, label %99

43:                                               ; preds = %36
  store i32 0, ptr %5, align 4, !tbaa !19
  br label %44

44:                                               ; preds = %95, %43
  %45 = load i32, ptr %5, align 4, !tbaa !19
  %46 = load ptr, ptr %4, align 8, !tbaa !8
  %47 = getelementptr inbounds nuw %struct.hwloc_obj, ptr %46, i32 0, i32 30
  %48 = load i32, ptr %47, align 8, !tbaa !67
  %49 = icmp ult i32 %45, %48
  br i1 %49, label %50, label %98

50:                                               ; preds = %44
  %51 = load ptr, ptr %4, align 8, !tbaa !8
  %52 = getelementptr inbounds nuw %struct.hwloc_obj, ptr %51, i32 0, i32 29
  %53 = load ptr, ptr %52, align 8, !tbaa !68
  %54 = load i32, ptr %5, align 4, !tbaa !19
  %55 = zext i32 %54 to i64
  %56 = getelementptr inbounds nuw %struct.hwloc_info_s, ptr %53, i64 %55
  %57 = getelementptr inbounds nuw %struct.hwloc_info_s, ptr %56, i32 0, i32 0
  %58 = load ptr, ptr %57, align 8, !tbaa !69
  %59 = call i32 @strncmp(ptr noundef %58, ptr noundef @.str.27, i64 noundef 15) #11
  %60 = icmp eq i32 0, %59
  br i1 %60, label %61, label %94

61:                                               ; preds = %50
  %62 = load i32, ptr @prte_hwloc_base_output, align 4, !tbaa !19
  %63 = icmp sge i32 %62, 0
  br i1 %63, label %64, label %84

64:                                               ; preds = %61
  %65 = load i32, ptr @prte_hwloc_base_output, align 4, !tbaa !19
  %66 = icmp slt i32 %65, 64
  br i1 %66, label %67, label %84

67:                                               ; preds = %64
  %68 = load i32, ptr @prte_hwloc_base_output, align 4, !tbaa !19
  %69 = sext i32 %68 to i64
  %70 = getelementptr inbounds [0 x %struct.pmix_output_desc_t], ptr @pmix_output_info, i64 0, i64 %69
  %71 = getelementptr inbounds nuw %struct.pmix_output_desc_t, ptr %70, i32 0, i32 2
  %72 = load i32, ptr %71, align 4, !tbaa !24
  %73 = icmp sge i32 %72, 5
  br i1 %73, label %74, label %84

74:                                               ; preds = %67
  %75 = load i32, ptr @prte_hwloc_base_output, align 4, !tbaa !19
  %76 = load ptr, ptr %4, align 8, !tbaa !8
  %77 = getelementptr inbounds nuw %struct.hwloc_obj, ptr %76, i32 0, i32 29
  %78 = load ptr, ptr %77, align 8, !tbaa !68
  %79 = load i32, ptr %5, align 4, !tbaa !19
  %80 = zext i32 %79 to i64
  %81 = getelementptr inbounds nuw %struct.hwloc_info_s, ptr %78, i64 %80
  %82 = getelementptr inbounds nuw %struct.hwloc_info_s, ptr %81, i32 0, i32 1
  %83 = load ptr, ptr %82, align 8, !tbaa !71
  call void (i32, ptr, ...) @pmix_output(i32 noundef %75, ptr noundef @.str.28, ptr noundef %83)
  br label %84

84:                                               ; preds = %74, %67, %64, %61
  %85 = load ptr, ptr %4, align 8, !tbaa !8
  %86 = getelementptr inbounds nuw %struct.hwloc_obj, ptr %85, i32 0, i32 29
  %87 = load ptr, ptr %86, align 8, !tbaa !68
  %88 = load i32, ptr %5, align 4, !tbaa !19
  %89 = zext i32 %88 to i64
  %90 = getelementptr inbounds nuw %struct.hwloc_info_s, ptr %87, i64 %89
  %91 = getelementptr inbounds nuw %struct.hwloc_info_s, ptr %90, i32 0, i32 1
  %92 = load ptr, ptr %91, align 8, !tbaa !71
  %93 = call i32 @PMIx_Argv_append_nosize(ptr noundef %6, ptr noundef %92)
  br label %94

94:                                               ; preds = %84, %50
  br label %95

95:                                               ; preds = %94
  %96 = load i32, ptr %5, align 4, !tbaa !19
  %97 = add i32 %96, 1
  store i32 %97, ptr %5, align 4, !tbaa !19
  br label %44, !llvm.loop !116

98:                                               ; preds = %44
  br label %99

99:                                               ; preds = %98, %36
  %100 = load ptr, ptr %4, align 8, !tbaa !8
  %101 = getelementptr inbounds nuw %struct.hwloc_obj, ptr %100, i32 0, i32 8
  %102 = load ptr, ptr %101, align 8, !tbaa !117
  store ptr %102, ptr %4, align 8, !tbaa !8
  br label %33, !llvm.loop !118

103:                                              ; preds = %33
  %104 = load ptr, ptr %6, align 8, !tbaa !28
  %105 = icmp ne ptr null, %104
  br i1 %105, label %106, label %110

106:                                              ; preds = %103
  %107 = load ptr, ptr %6, align 8, !tbaa !28
  %108 = call ptr @PMIx_Argv_join(ptr noundef %107, i32 noundef 44)
  store ptr %108, ptr %7, align 8, !tbaa !26
  %109 = load ptr, ptr %6, align 8, !tbaa !28
  call void @PMIx_Argv_free(ptr noundef %109)
  br label %110

110:                                              ; preds = %106, %103
  %111 = load i32, ptr @prte_hwloc_base_output, align 4, !tbaa !19
  %112 = icmp sge i32 %111, 0
  br i1 %112, label %113, label %132

113:                                              ; preds = %110
  %114 = load i32, ptr @prte_hwloc_base_output, align 4, !tbaa !19
  %115 = icmp slt i32 %114, 64
  br i1 %115, label %116, label %132

116:                                              ; preds = %113
  %117 = load i32, ptr @prte_hwloc_base_output, align 4, !tbaa !19
  %118 = sext i32 %117 to i64
  %119 = getelementptr inbounds [0 x %struct.pmix_output_desc_t], ptr @pmix_output_info, i64 0, i64 %118
  %120 = getelementptr inbounds nuw %struct.pmix_output_desc_t, ptr %119, i32 0, i32 2
  %121 = load i32, ptr %120, align 4, !tbaa !24
  %122 = icmp sge i32 %121, 5
  br i1 %122, label %123, label %132

123:                                              ; preds = %116
  %124 = load i32, ptr @prte_hwloc_base_output, align 4, !tbaa !19
  %125 = load ptr, ptr %7, align 8, !tbaa !26
  %126 = icmp eq ptr null, %125
  br i1 %126, label %127, label %128

127:                                              ; preds = %123
  br label %130

128:                                              ; preds = %123
  %129 = load ptr, ptr %7, align 8, !tbaa !26
  br label %130

130:                                              ; preds = %128, %127
  %131 = phi ptr [ @.str.30, %127 ], [ %129, %128 ]
  call void (i32, ptr, ...) @pmix_output(i32 noundef %124, ptr noundef @.str.29, ptr noundef %131)
  br label %132

132:                                              ; preds = %130, %116, %113, %110
  %133 = load ptr, ptr %7, align 8, !tbaa !26
  store ptr %133, ptr %2, align 8
  store i32 1, ptr %9, align 4
  br label %134

134:                                              ; preds = %132, %28
  call void @llvm.lifetime.end.p0(i64 4, ptr %8) #10
  call void @llvm.lifetime.end.p0(i64 8, ptr %7) #10
  call void @llvm.lifetime.end.p0(i64 8, ptr %6) #10
  call void @llvm.lifetime.end.p0(i64 4, ptr %5) #10
  call void @llvm.lifetime.end.p0(i64 8, ptr %4) #10
  %135 = load ptr, ptr %2, align 8
  ret ptr %135
}