; Function Attrs: nounwind uwtable
define ptr @prte_hwloc_base_find_coprocessors(ptr noundef %0) local_unnamed_addr #0 {
  %2 = alloca ptr, align 8
  call void @llvm.lifetime.start.p0(i64 8, ptr nonnull %2) #18
  store ptr null, ptr %2, align 8, !tbaa !97
  %3 = tail call i32 @hwloc_get_type_depth(ptr noundef %0, i32 noundef 16) #18
  %4 = icmp eq i32 %3, -1
  br i1 %4, label %5, label %13

5:                                                ; preds = %1
  %6 = load i32, ptr @prte_hwloc_base_output, align 4, !tbaa !16
  %or.cond = icmp ult i32 %6, 64
  br i1 %or.cond, label %7, label %62

7:                                                ; preds = %5
  %8 = zext nneg i32 %6 to i64
  %9 = getelementptr inbounds nuw [0 x %struct.pmix_output_desc_t], ptr @pmix_output_info, i64 0, i64 %8, i32 2
  %10 = load i32, ptr %9, align 4, !tbaa !17
  %11 = icmp sgt i32 %10, 4
  br i1 %11, label %12, label %62

12:                                               ; preds = %7
  tail call void (i32, ptr, ...) @pmix_output(i32 noundef %6, ptr noundef nonnull @.str.26) #18
  br label %62

13:                                               ; preds = %1
  %14 = tail call ptr @hwloc_get_obj_by_depth(ptr noundef %0, i32 noundef %3, i32 noundef 0) #19
  %.not33 = icmp eq ptr %14, null
  br i1 %.not33, label %._crit_edge.thread, label %.lr.ph36

.lr.ph36:                                         ; preds = %13, %.loopexit
  %.02534 = phi ptr [ %49, %.loopexit ], [ %14, %13 ]
  %15 = getelementptr inbounds nuw i8, ptr %.02534, i64 40
  %16 = load ptr, ptr %15, align 8, !tbaa !53
  %17 = load i32, ptr %16, align 8, !tbaa !54
  %18 = icmp eq i32 %17, 5
  br i1 %18, label %.preheader, label %.loopexit

.preheader:                                       ; preds = %.lr.ph36
  %19 = getelementptr inbounds nuw i8, ptr %.02534, i64 224
  %20 = load i32, ptr %19, align 8, !tbaa !55
  %.not37 = icmp eq i32 %20, 0
  br i1 %.not37, label %.loopexit, label %.lr.ph

.lr.ph:                                           ; preds = %.preheader
  %21 = getelementptr inbounds nuw i8, ptr %.02534, i64 216
  br label %22

22:                                               ; preds = %.lr.ph, %44
  %23 = phi i32 [ %20, %.lr.ph ], [ %45, %44 ]
  %indvars.iv = phi i64 [ 0, %.lr.ph ], [ %indvars.iv.next, %44 ]
  %24 = load ptr, ptr %21, align 8, !tbaa !56
  %25 = getelementptr inbounds nuw %struct.hwloc_info_s, ptr %24, i64 %indvars.iv
  %26 = load ptr, ptr %25, align 8, !tbaa !57
  %27 = call i32 @strncmp(ptr noundef nonnull dereferenceable(1) %26, ptr noundef nonnull dereferenceable(16) @.str.27, i64 noundef 15) #19
  %28 = icmp eq i32 %27, 0
  br i1 %28, label %29, label %44

29:                                               ; preds = %22
  %30 = load i32, ptr @prte_hwloc_base_output, align 4, !tbaa !16
  %or.cond3 = icmp ult i32 %30, 64
  br i1 %or.cond3, label %31, label %39

31:                                               ; preds = %29
  %32 = zext nneg i32 %30 to i64
  %33 = getelementptr inbounds nuw [0 x %struct.pmix_output_desc_t], ptr @pmix_output_info, i64 0, i64 %32, i32 2
  %34 = load i32, ptr %33, align 4, !tbaa !17
  %35 = icmp sgt i32 %34, 4
  br i1 %35, label %36, label %39

36:                                               ; preds = %31
  %37 = getelementptr inbounds nuw i8, ptr %25, i64 8
  %38 = load ptr, ptr %37, align 8, !tbaa !59
  call void (i32, ptr, ...) @pmix_output(i32 noundef %30, ptr noundef nonnull @.str.28, ptr noundef %38) #18
  %.pre = load ptr, ptr %21, align 8, !tbaa !56
  br label %39

39:                                               ; preds = %36, %31, %29
  %40 = phi ptr [ %.pre, %36 ], [ %24, %31 ], [ %24, %29 ]
  %41 = getelementptr inbounds nuw %struct.hwloc_info_s, ptr %40, i64 %indvars.iv, i32 1
  %42 = load ptr, ptr %41, align 8, !tbaa !59
  %43 = call i32 @PMIx_Argv_append_nosize(ptr noundef nonnull %2, ptr noundef %42) #18
  %.pre39 = load i32, ptr %19, align 8, !tbaa !55
  br label %44

44:                                               ; preds = %22, %39
  %45 = phi i32 [ %23, %22 ], [ %.pre39, %39 ]
  %indvars.iv.next = add nuw nsw i64 %indvars.iv, 1
  %46 = zext i32 %45 to i64
  %47 = icmp samesign ult i64 %indvars.iv.next, %46
  br i1 %47, label %22, label %.loopexit, !llvm.loop !98

.loopexit:                                        ; preds = %44, %.preheader, %.lr.ph36
  %48 = getelementptr inbounds nuw i8, ptr %.02534, i64 56
  %49 = load ptr, ptr %48, align 8, !tbaa !42
  %.not = icmp eq ptr %49, null
  br i1 %.not, label %._crit_edge, label %.lr.ph36, !llvm.loop !99

._crit_edge:                                      ; preds = %.loopexit
  %.pre40 = load ptr, ptr %2, align 8, !tbaa !97
  %.not31 = icmp eq ptr %.pre40, null
  br i1 %.not31, label %._crit_edge.thread, label %50

50:                                               ; preds = %._crit_edge
  %51 = call ptr @PMIx_Argv_join(ptr noundef nonnull %.pre40, i32 noundef 44) #18
  %52 = load ptr, ptr %2, align 8, !tbaa !97
  call void @PMIx_Argv_free(ptr noundef %52) #18
  br label %._crit_edge.thread

._crit_edge.thread:                               ; preds = %13, %50, %._crit_edge
  %.023 = phi ptr [ %51, %50 ], [ null, %._crit_edge ], [ null, %13 ]
  %53 = load i32, ptr @prte_hwloc_base_output, align 4, !tbaa !16
  %or.cond5 = icmp ult i32 %53, 64
  br i1 %or.cond5, label %54, label %62

54:                                               ; preds = %._crit_edge.thread
  %55 = zext nneg i32 %53 to i64
  %56 = getelementptr inbounds nuw [0 x %struct.pmix_output_desc_t], ptr @pmix_output_info, i64 0, i64 %55, i32 2
  %57 = load i32, ptr %56, align 4, !tbaa !17
  %58 = icmp sgt i32 %57, 4
  br i1 %58, label %59, label %62

59:                                               ; preds = %54
  %60 = icmp eq ptr %.023, null
  %61 = select i1 %60, ptr @.str.30, ptr %.023
  call void (i32, ptr, ...) @pmix_output(i32 noundef %53, ptr noundef nonnull @.str.29, ptr noundef nonnull %61) #18
  br label %62

62:                                               ; preds = %._crit_edge.thread, %54, %59, %5, %7, %12
  %.0 = phi ptr [ null, %12 ], [ null, %7 ], [ null, %5 ], [ %.023, %59 ], [ %.023, %54 ], [ %.023, %._crit_edge.thread ]
  call void @llvm.lifetime.end.p0(i64 8, ptr nonnull %2) #18
  ret ptr %.0
}